target datalayout = "e-m:e-p270:32:32-p271:32:32-p272:64:64-i64:64-i128:128-f80:128-n8:16:32:64-S128"
target triple = "x86_64-pc-linux-gnu"

%struct.context_type = type { ptr, ptr, i32, i8, ptr, [16 x %struct.alloc_stack_type], i32, ptr, i32, i32, ptr, %struct.hash_table_type, i32, i32, i32, i32, i32, i32, i32, i32, ptr, ptr, i32, ptr, ptr, ptr, ptr, i32, i32, [4 x i32], i32, i32, ptr, ptr, ptr, i32, [1 x %struct.__jmp_buf_tag] }
%struct.alloc_stack_type = type { ptr, i32, ptr }
%struct.hash_table_type = type { ptr, ptr, i32 }
%struct.__jmp_buf_tag = type { [8 x i64], i32, %struct.__sigset_t }
%struct.__sigset_t = type { [16 x i64] }

@.str.73 = private unnamed_addr constant [31 x i8] c"Array with too many dimensions\00", align 1

; Function Attrs: nounwind uwtable
define internal void @free_block(ptr noundef %0, i32 noundef %1) #0 {
  %3 = alloca ptr, align 8
  %4 = alloca i32, align 4
  store ptr %0, ptr %3, align 8
  store i32 %1, ptr %4, align 4
  %5 = load i32, ptr %4, align 4
  switch i32 %5, label %10 [
    i32 0, label %6
    i32 1, label %8
  ]

6:                                                ; preds = %2
  %7 = load ptr, ptr %3, align 8
  call void @JVM_ReleaseUTF(ptr noundef %7)
  br label %10

8:                                                ; preds = %2
  %9 = load ptr, ptr %3, align 8
  call void @free(ptr noundef %9) #15
  br label %10

10:                                               ; preds = %8, %6, %2
  ret void
}

; Function Attrs: nounwind uwtable
define internal void @check_and_push_common(ptr noundef %0, ptr noundef %1, i32 noundef %2) #0 {
  %4 = alloca ptr, align 8
  %5 = alloca ptr, align 8
  %6 = alloca i32, align 4
  %7 = alloca ptr, align 8
  store ptr %0, ptr %4, align 8
  store ptr %1, ptr %5, align 8
  store i32 %2, ptr %6, align 4
  %8 = load ptr, ptr %5, align 8
  %9 = icmp eq ptr %8, null
  br i1 %9, label %10, label %12

10:                                               ; preds = %3
  %11 = load ptr, ptr %4, align 8
  call void @CCout_of_memory(ptr noundef %11)
  br label %12

12:                                               ; preds = %10, %3
  %13 = load ptr, ptr %4, align 8
  %14 = getelementptr inbounds %struct.context_type, ptr %13, i32 0, i32 6
  %15 = load i32, ptr %14, align 8
  %16 = icmp slt i32 %15, 16
  br i1 %16, label %17, label %26

17:                                               ; preds = %12
  %18 = load ptr, ptr %4, align 8
  %19 = getelementptr inbounds %struct.context_type, ptr %18, i32 0, i32 5
  %20 = load ptr, ptr %4, align 8
  %21 = getelementptr inbounds %struct.context_type, ptr %20, i32 0, i32 6
  %22 = load i32, ptr %21, align 8
  %23 = add nsw i32 %22, 1
  store i32 %23, ptr %21, align 8
  %24 = sext i32 %22 to i64
  %25 = getelementptr inbounds [16 x %struct.alloc_stack_type], ptr %19, i64 0, i64 %24
  store ptr %25, ptr %7, align 8
  br label %35

26:                                               ; preds = %12
  %27 = call noalias ptr @malloc(i64 noundef 24) #14
  store ptr %27, ptr %7, align 8
  %28 = load ptr, ptr %7, align 8
  %29 = icmp eq ptr %28, null
  br i1 %29, label %30, label %34

30:                                               ; preds = %26
  %31 = load ptr, ptr %5, align 8
  %32 = load i32, ptr %6, align 4
  call void @free_block(ptr noundef %31, i32 noundef %32)
  %33 = load ptr, ptr %4, align 8
  call void @CCout_of_memory(ptr noundef %33)
  br label %34

34:                                               ; preds = %30, %26
  br label %35

35:                                               ; preds = %34, %17
  %36 = load i32, ptr %6, align 4
  %37 = load ptr, ptr %7, align 8
  %38 = getelementptr inbounds %struct.alloc_stack_type, ptr %37, i32 0, i32 1
  store i32 %36, ptr %38, align 8
  %39 = load ptr, ptr %5, align 8
  %40 = load ptr, ptr %7, align 8
  %41 = getelementptr inbounds %struct.alloc_stack_type, ptr %40, i32 0, i32 0
  store ptr %39, ptr %41, align 8
  %42 = load ptr, ptr %4, align 8
  %43 = getelementptr inbounds %struct.context_type, ptr %42, i32 0, i32 4
  %44 = load ptr, ptr %43, align 8
  %45 = load ptr, ptr %7, align 8
  %46 = getelementptr inbounds %struct.alloc_stack_type, ptr %45, i32 0, i32 2
  store ptr %44, ptr %46, align 8
  %47 = load ptr, ptr %7, align 8
  %48 = load ptr, ptr %4, align 8
  %49 = getelementptr inbounds %struct.context_type, ptr %48, i32 0, i32 4
  store ptr %47, ptr %49, align 8
  ret void
}

; Function Attrs: nounwind uwtable
define internal void @pop_and_free(ptr noundef %0) #0 {
  %2 = alloca ptr, align 8
  %3 = alloca ptr, align 8
  store ptr %0, ptr %2, align 8
  %4 = load ptr, ptr %2, align 8
  %5 = getelementptr inbounds %struct.context_type, ptr %4, i32 0, i32 4
  %6 = load ptr, ptr %5, align 8
  store ptr %6, ptr %3, align 8
  %7 = load ptr, ptr %3, align 8
  %8 = getelementptr inbounds %struct.alloc_stack_type, ptr %7, i32 0, i32 2
  %9 = load ptr, ptr %8, align 8
  %10 = load ptr, ptr %2, align 8
  %11 = getelementptr inbounds %struct.context_type, ptr %10, i32 0, i32 4
  store ptr %9, ptr %11, align 8
  %12 = load ptr, ptr %3, align 8
  %13 = getelementptr inbounds %struct.alloc_stack_type, ptr %12, i32 0, i32 0
  %14 = load ptr, ptr %13, align 8
  %15 = load ptr, ptr %3, align 8
  %16 = getelementptr inbounds %struct.alloc_stack_type, ptr %15, i32 0, i32 1
  %17 = load i32, ptr %16, align 8
  call void @free_block(ptr noundef %14, i32 noundef %17)
  %18 = load ptr, ptr %3, align 8
  %19 = load ptr, ptr %2, align 8
  %20 = getelementptr inbounds %struct.context_type, ptr %19, i32 0, i32 5
  %21 = getelementptr inbounds [16 x %struct.alloc_stack_type], ptr %20, i64 0, i64 0
  %22 = getelementptr inbounds %struct.alloc_stack_type, ptr %21, i64 16
  %23 = icmp ult ptr %18, %22
  br i1 %23, label %24, label %35

24:                                               ; preds = %1
  %25 = load ptr, ptr %3, align 8
  %26 = load ptr, ptr %2, align 8
  %27 = getelementptr inbounds %struct.context_type, ptr %26, i32 0, i32 5
  %28 = getelementptr inbounds [16 x %struct.alloc_stack_type], ptr %27, i64 0, i64 0
  %29 = icmp uge ptr %25, %28
  br i1 %29, label %30, label %35

30:                                               ; preds = %24
  %31 = load ptr, ptr %2, align 8
  %32 = getelementptr inbounds %struct.context_type, ptr %31, i32 0, i32 6
  %33 = load i32, ptr %32, align 8
  %34 = add nsw i32 %33, -1
  store i32 %34, ptr %32, align 8
  br label %37

35:                                               ; preds = %24, %1
  %36 = load ptr, ptr %3, align 8
  call void @free(ptr noundef %36) #15
  br label %37

37:                                               ; preds = %35, %30
  ret void
}

; Function Attrs: nounwind uwtable
define internal void @check_and_push_malloc_block(ptr noundef %0, ptr noundef %1) #0 {
  %3 = alloca ptr, align 8
  %4 = alloca ptr, align 8
  store ptr %0, ptr %3, align 8
  store ptr %1, ptr %4, align 8
  %5 = load ptr, ptr %3, align 8
  %6 = load ptr, ptr %4, align 8
  call void @check_and_push_common(ptr noundef %5, ptr noundef %6, i32 noundef 1)
  ret void
}

; Function Attrs: nounwind uwtable
define internal signext i8 @signature_to_fieldtype(ptr noundef %0, ptr noundef %1, ptr noundef %2) #0 {
  %4 = alloca i8, align 1
  %5 = alloca ptr, align 8
  %6 = alloca ptr, align 8
  %7 = alloca ptr, align 8
  %8 = alloca ptr, align 8
  %9 = alloca i32, align 4
  %10 = alloca i8, align 1
  %11 = alloca i32, align 4
  %12 = alloca [256 x i8], align 16
  %13 = alloca ptr, align 8
  %14 = alloca ptr, align 8
  %15 = alloca i32, align 4
  store ptr %0, ptr %5, align 8
  store ptr %1, ptr %6, align 8
  store ptr %2, ptr %7, align 8
  %16 = load ptr, ptr %6, align 8
  %17 = load ptr, ptr %16, align 8
  store ptr %17, ptr %8, align 8
  store i32 0, ptr %9, align 4
  store i32 0, ptr %11, align 4
  br label %18

18:                                               ; preds = %44, %3
  %19 = load ptr, ptr %8, align 8
  %20 = getelementptr inbounds i8, ptr %19, i32 1
  store ptr %20, ptr %8, align 8
  %21 = load i8, ptr %19, align 1
  %22 = sext i8 %21 to i32
  switch i32 %22, label %23 [
    i32 90, label %24
    i32 66, label %28
    i32 67, label %32
    i32 83, label %36
    i32 73, label %40
    i32 70, label %41
    i32 68, label %42
    i32 74, label %43
    i32 91, label %44
    i32 76, label %47
  ]

23:                                               ; preds = %18
  store i8 0, ptr %10, align 1
  br label %91

24:                                               ; preds = %18
  %25 = load i32, ptr %11, align 4
  %26 = icmp sgt i32 %25, 0
  %27 = select i1 %26, i32 16, i32 2
  store i32 %27, ptr %9, align 4
  store i8 73, ptr %10, align 1
  br label %91

28:                                               ; preds = %18
  %29 = load i32, ptr %11, align 4
  %30 = icmp sgt i32 %29, 0
  %31 = select i1 %30, i32 13, i32 2
  store i32 %31, ptr %9, align 4
  store i8 73, ptr %10, align 1
  br label %91

32:                                               ; preds = %18
  %33 = load i32, ptr %11, align 4
  %34 = icmp sgt i32 %33, 0
  %35 = select i1 %34, i32 15, i32 2
  store i32 %35, ptr %9, align 4
  store i8 73, ptr %10, align 1
  br label %91

36:                                               ; preds = %18
  %37 = load i32, ptr %11, align 4
  %38 = icmp sgt i32 %37, 0
  %39 = select i1 %38, i32 14, i32 2
  store i32 %39, ptr %9, align 4
  store i8 73, ptr %10, align 1
  br label %91

40:                                               ; preds = %18
  store i32 2, ptr %9, align 4
  store i8 73, ptr %10, align 1
  br label %91

41:                                               ; preds = %18
  store i32 3, ptr %9, align 4
  store i8 70, ptr %10, align 1
  br label %91

42:                                               ; preds = %18
  store i32 4, ptr %9, align 4
  store i8 68, ptr %10, align 1
  br label %91

43:                                               ; preds = %18
  store i32 6, ptr %9, align 4
  store i8 76, ptr %10, align 1
  br label %91

44:                                               ; preds = %18
  %45 = load i32, ptr %11, align 4
  %46 = add nsw i32 %45, 1
  store i32 %46, ptr %11, align 4
  br label %18

47:                                               ; preds = %18
  %48 = getelementptr inbounds [256 x i8], ptr %12, i64 0, i64 0
  store ptr %48, ptr %13, align 8
  %49 = load ptr, ptr %8, align 8
  %50 = call ptr @strchr(ptr noundef %49, i32 noundef 59) #16
  store ptr %50, ptr %14, align 8
  %51 = load ptr, ptr %14, align 8
  %52 = icmp eq ptr %51, null
  br i1 %52, label %53, label %54

53:                                               ; preds = %47
  store i8 0, ptr %10, align 1
  br label %91

54:                                               ; preds = %47
  %55 = load ptr, ptr %14, align 8
  %56 = load ptr, ptr %8, align 8
  %57 = ptrtoint ptr %55 to i64
  %58 = ptrtoint ptr %56 to i64
  %59 = sub i64 %57, %58
  %60 = trunc i64 %59 to i32
  store i32 %60, ptr %15, align 4
  %61 = load i32, ptr %15, align 4
  %62 = add nsw i32 %61, 1
  %63 = icmp sgt i32 %62, 256
  br i1 %63, label %64, label %71

64:                                               ; preds = %54
  %65 = load i32, ptr %15, align 4
  %66 = add nsw i32 %65, 1
  %67 = sext i32 %66 to i64
  %68 = call noalias ptr @malloc(i64 noundef %67) #14
  store ptr %68, ptr %13, align 8
  %69 = load ptr, ptr %5, align 8
  %70 = load ptr, ptr %13, align 8
  call void @check_and_push_malloc_block(ptr noundef %69, ptr noundef %70)
  br label %71

71:                                               ; preds = %64, %54
  %72 = load ptr, ptr %13, align 8
  %73 = load ptr, ptr %8, align 8
  %74 = load i32, ptr %15, align 4
  %75 = sext i32 %74 to i64
  call void @llvm.memcpy.p0.p0.i64(ptr align 1 %72, ptr align 1 %73, i64 %75, i1 false)
  %76 = load ptr, ptr %13, align 8
  %77 = load i32, ptr %15, align 4
  %78 = sext i32 %77 to i64
  %79 = getelementptr inbounds i8, ptr %76, i64 %78
  store i8 0, ptr %79, align 1
  %80 = load ptr, ptr %5, align 8
  %81 = load ptr, ptr %13, align 8
  %82 = call i32 @make_class_info_from_name(ptr noundef %80, ptr noundef %81)
  store i32 %82, ptr %9, align 4
  store i8 65, ptr %10, align 1
  %83 = load ptr, ptr %14, align 8
  %84 = getelementptr inbounds i8, ptr %83, i64 1
  store ptr %84, ptr %8, align 8
  %85 = load ptr, ptr %13, align 8
  %86 = getelementptr inbounds [256 x i8], ptr %12, i64 0, i64 0
  %87 = icmp ne ptr %85, %86
  br i1 %87, label %88, label %90

88:                                               ; preds = %71
  %89 = load ptr, ptr %5, align 8
  call void @pop_and_free(ptr noundef %89)
  br label %90

90:                                               ; preds = %88, %71
  br label %91

91:                                               ; preds = %90, %53, %43, %42, %41, %40, %36, %32, %28, %24, %23
  br label %92

92:                                               ; preds = %91
  %93 = load ptr, ptr %8, align 8
  %94 = load ptr, ptr %6, align 8
  store ptr %93, ptr %94, align 8
  %95 = load i32, ptr %11, align 4
  %96 = icmp eq i32 %95, 0
  br i1 %96, label %101, label %97

97:                                               ; preds = %92
  %98 = load i8, ptr %10, align 1
  %99 = sext i8 %98 to i32
  %100 = icmp eq i32 %99, 0
  br i1 %100, label %101, label %105

101:                                              ; preds = %97, %92
  %102 = load i32, ptr %9, align 4
  %103 = load ptr, ptr %7, align 8
  store i32 %102, ptr %103, align 4
  %104 = load i8, ptr %10, align 1
  store i8 %104, ptr %4, align 1
  br label %121

105:                                              ; preds = %97
  %106 = load i32, ptr %11, align 4
  %107 = icmp sgt i32 %106, 255
  br i1 %107, label %108, label %110

108:                                              ; preds = %105
  %109 = load ptr, ptr %5, align 8
  call void (ptr, ptr, ...) @CCerror(ptr noundef %109, ptr noundef @.str.73)
  br label %110

110:                                              ; preds = %108, %105
  %111 = load i32, ptr %9, align 4
  %112 = and i32 %111, 31
  %113 = load i32, ptr %11, align 4
  %114 = shl i32 %113, 5
  %115 = add i32 %112, %114
  %116 = load i32, ptr %9, align 4
  %117 = lshr i32 %116, 16
  %118 = shl i32 %117, 16
  %119 = add i32 %115, %118
  %120 = load ptr, ptr %7, align 8
  store i32 %119, ptr %120, align 4
  store i8 65, ptr %4, align 1
  br label %121

121:                                              ; preds = %110, %101
  %122 = load i8, ptr %4, align 1
  ret i8 %122
}