; Function Attrs: nounwind uwtable
define internal fastcc signext range(i8 0, 77) i8 @signature_to_fieldtype(ptr noundef %0, ptr nocapture noundef %1, ptr nocapture noundef writeonly %2) unnamed_addr #0 {
  %4 = alloca [256 x i8], align 16
  %5 = load ptr, ptr %1, align 8
  br label %6

6:                                                ; preds = %17, %3
  %.042 = phi i32 [ 0, %3 ], [ %18, %17 ]
  %.040 = phi ptr [ %5, %3 ], [ %7, %17 ]
  %7 = getelementptr inbounds i8, ptr %.040, i64 1
  %8 = load i8, ptr %.040, align 1
  switch i8 %8, label %pop_and_free.exit.thread [
    i8 90, label %9
    i8 66, label %11
    i8 67, label %13
    i8 83, label %15
    i8 73, label %pop_and_free.exit.loopexit
    i8 70, label %pop_and_free.exit
    i8 68, label %pop_and_free.exit.loopexit94
    i8 74, label %pop_and_free.exit.loopexit114
    i8 91, label %17
    i8 76, label %19
  ]

9:                                                ; preds = %6
  %.not50 = icmp eq i32 %.042, 0
  %10 = select i1 %.not50, i32 2, i32 16
  br label %pop_and_free.exit

11:                                               ; preds = %6
  %.not49 = icmp eq i32 %.042, 0
  %12 = select i1 %.not49, i32 2, i32 13
  br label %pop_and_free.exit

13:                                               ; preds = %6
  %.not48 = icmp eq i32 %.042, 0
  %14 = select i1 %.not48, i32 2, i32 15
  br label %pop_and_free.exit

15:                                               ; preds = %6
  %.not47 = icmp eq i32 %.042, 0
  %16 = select i1 %.not47, i32 2, i32 14
  br label %pop_and_free.exit

17:                                               ; preds = %6
  %18 = add nuw nsw i32 %.042, 1
  br label %6

19:                                               ; preds = %6
  %20 = tail call ptr @strchr(ptr noundef nonnull dereferenceable(1) %7, i32 noundef 59) #21
  %21 = icmp eq ptr %20, null
  br i1 %21, label %pop_and_free.exit.thread, label %22

22:                                               ; preds = %19
  %23 = ptrtoint ptr %20 to i64
  %24 = ptrtoint ptr %7 to i64
  %25 = sub i64 %23, %24
  %26 = trunc i64 %25 to i32
  %27 = icmp sgt i32 %26, 255
  br i1 %27, label %28, label %54

28:                                               ; preds = %22
  %29 = add nuw nsw i64 %25, 1
  %30 = and i64 %29, 4294967295
  %31 = tail call noalias ptr @malloc(i64 noundef %30) #19
  %32 = icmp eq ptr %31, null
  br i1 %32, label %33, label %37

33:                                               ; preds = %28
  %34 = tail call fastcc i32 @print_CCerror_info(ptr noundef %0)
  %35 = getelementptr inbounds i8, ptr %0, i64 20
  store i8 2, ptr %35, align 4
  %36 = getelementptr inbounds i8, ptr %0, i64 624
  tail call void @longjmp(ptr noundef nonnull %36, i32 noundef 1) #17
  unreachable

37:                                               ; preds = %28
  %38 = getelementptr inbounds i8, ptr %0, i64 416
  %39 = load i32, ptr %38, align 8
  %40 = icmp slt i32 %39, 16
  br i1 %40, label %41, label %46

41:                                               ; preds = %37
  %42 = getelementptr inbounds i8, ptr %0, i64 32
  %43 = add nsw i32 %39, 1
  store i32 %43, ptr %38, align 8
  %44 = sext i32 %39 to i64
  %45 = getelementptr inbounds [16 x %struct.alloc_stack_type], ptr %42, i64 0, i64 %44
  br label %check_and_push_malloc_block.exit

46:                                               ; preds = %37
  %47 = tail call noalias dereferenceable_or_null(24) ptr @malloc(i64 noundef 24) #19
  %48 = icmp eq ptr %47, null
  br i1 %48, label %49, label %check_and_push_malloc_block.exit

49:                                               ; preds = %46
  tail call void @free(ptr noundef nonnull %31) #20
  tail call fastcc void @CCout_of_memory(ptr noundef nonnull %0)
  unreachable

check_and_push_malloc_block.exit:                 ; preds = %41, %46
  %.0.i.i = phi ptr [ %45, %41 ], [ %47, %46 ]
  %50 = getelementptr inbounds i8, ptr %.0.i.i, i64 8
  store i32 1, ptr %50, align 8
  store ptr %31, ptr %.0.i.i, align 8
  %51 = getelementptr inbounds i8, ptr %0, i64 24
  %52 = load ptr, ptr %51, align 8
  %53 = getelementptr inbounds i8, ptr %.0.i.i, i64 16
  store ptr %52, ptr %53, align 8
  store ptr %.0.i.i, ptr %51, align 8
  br label %54

54:                                               ; preds = %check_and_push_malloc_block.exit, %22
  %.041 = phi ptr [ %31, %check_and_push_malloc_block.exit ], [ %4, %22 ]
  %sext = shl i64 %25, 32
  %55 = ashr exact i64 %sext, 32
  call void @llvm.memcpy.p0.p0.i64(ptr nonnull align 1 %.041, ptr nonnull align 1 %7, i64 %55, i1 false)
  %56 = getelementptr inbounds i8, ptr %.041, i64 %55
  store i8 0, ptr %56, align 1
  %57 = call fastcc i32 @make_class_info_from_name(ptr noundef %0, ptr noundef nonnull %.041)
  %58 = getelementptr inbounds i8, ptr %20, i64 1
  %.not = icmp eq ptr %.041, %4
  br i1 %.not, label %pop_and_free.exit, label %59

59:                                               ; preds = %54
  %60 = getelementptr inbounds i8, ptr %0, i64 24
  %61 = load ptr, ptr %60, align 8
  %62 = getelementptr inbounds i8, ptr %61, i64 16
  %63 = load ptr, ptr %62, align 8
  store ptr %63, ptr %60, align 8
  %64 = load ptr, ptr %61, align 8
  %65 = getelementptr inbounds i8, ptr %61, i64 8
  %66 = load i32, ptr %65, align 8
  switch i32 %66, label %free_block.exit.i [
    i32 0, label %67
    i32 1, label %68
  ]

67:                                               ; preds = %59
  call void @JVM_ReleaseUTF(ptr noundef %64) #20
  br label %free_block.exit.i

68:                                               ; preds = %59
  call void @free(ptr noundef %64) #20
  br label %free_block.exit.i

free_block.exit.i:                                ; preds = %68, %67, %59
  %69 = getelementptr inbounds i8, ptr %0, i64 416
  %70 = icmp uge ptr %61, %69
  %71 = getelementptr inbounds i8, ptr %0, i64 32
  %.not.i = icmp ult ptr %61, %71
  %or.cond.i = select i1 %70, i1 true, i1 %.not.i
  br i1 %or.cond.i, label %75, label %72

72:                                               ; preds = %free_block.exit.i
  %73 = load i32, ptr %69, align 8
  %74 = add nsw i32 %73, -1
  store i32 %74, ptr %69, align 8
  br label %pop_and_free.exit

75:                                               ; preds = %free_block.exit.i
  call void @free(ptr noundef nonnull %61) #20
  br label %pop_and_free.exit

pop_and_free.exit.thread:                         ; preds = %6, %19
  store ptr %7, ptr %1, align 8
  br label %84

pop_and_free.exit.loopexit94:                     ; preds = %6
  br label %pop_and_free.exit

pop_and_free.exit.loopexit114:                    ; preds = %6
  br label %pop_and_free.exit

pop_and_free.exit.loopexit:                       ; preds = %6
  br label %pop_and_free.exit

pop_and_free.exit:                                ; preds = %6, %pop_and_free.exit.loopexit, %pop_and_free.exit.loopexit114, %pop_and_free.exit.loopexit94, %75, %72, %9, %11, %13, %15, %54
  %.044 = phi i32 [ %57, %54 ], [ %16, %15 ], [ %14, %13 ], [ %12, %11 ], [ %10, %9 ], [ %57, %72 ], [ %57, %75 ], [ 4, %pop_and_free.exit.loopexit94 ], [ 6, %pop_and_free.exit.loopexit114 ], [ 2, %pop_and_free.exit.loopexit ], [ 3, %6 ]
  %.043 = phi i8 [ 65, %54 ], [ 73, %15 ], [ 73, %13 ], [ 73, %11 ], [ 73, %9 ], [ 65, %72 ], [ 65, %75 ], [ %8, %pop_and_free.exit.loopexit94 ], [ 76, %pop_and_free.exit.loopexit114 ], [ %8, %pop_and_free.exit.loopexit ], [ %8, %6 ]
  %.1 = phi ptr [ %58, %54 ], [ %7, %15 ], [ %7, %13 ], [ %7, %11 ], [ %7, %9 ], [ %58, %72 ], [ %58, %75 ], [ %7, %pop_and_free.exit.loopexit94 ], [ %7, %pop_and_free.exit.loopexit114 ], [ %7, %pop_and_free.exit.loopexit ], [ %7, %6 ]
  store ptr %.1, ptr %1, align 8
  %76 = icmp eq i32 %.042, 0
  br i1 %76, label %84, label %77

77:                                               ; preds = %pop_and_free.exit
  %78 = icmp ugt i32 %.042, 255
  br i1 %78, label %79, label %80

79:                                               ; preds = %77
  call void (ptr, ptr, ...) @CCerror(ptr noundef %0, ptr noundef nonnull @.str.73)
  unreachable

80:                                               ; preds = %77
  %81 = shl nuw nsw i32 %.042, 5
  %82 = and i32 %.044, -65505
  %83 = or disjoint i32 %82, %81
  br label %84

84:                                               ; preds = %pop_and_free.exit.thread, %pop_and_free.exit, %80
  %storemerge = phi i32 [ %83, %80 ], [ %.044, %pop_and_free.exit ], [ 0, %pop_and_free.exit.thread ]
  %.0 = phi i8 [ 65, %80 ], [ %.043, %pop_and_free.exit ], [ 0, %pop_and_free.exit.thread ]
  store i32 %storemerge, ptr %2, align 4
  ret i8 %.0
}